; Function Attrs: mustprogress uwtable
define dso_local void @_ZN11cmQtAutoGen13QuotedCommandERKSt6vectorINSt7__cxx1112basic_stringIcSt11char_traitsIcESaIcEEESaIS6_EE(ptr dead_on_unwind noalias nonnull writable sret(%"class.std::__cxx11::basic_string") align 8 %0, ptr noundef nonnull readonly align 8 captures(none) dereferenceable(24) %1) local_unnamed_addr #4 align 2 personality ptr @__gxx_personality_v0 {
  %3 = alloca %"class.std::__cxx11::basic_string", align 8
  tail call void @_ZNSt7__cxx1112basic_stringIcSt11char_traitsIcESaIcEEC1Ev(ptr noundef nonnull align 8 dereferenceable(32) %0) #19
  %4 = load ptr, ptr %1, align 8
  %5 = getelementptr inbounds nuw i8, ptr %1, i64 8
  %6 = load ptr, ptr %5, align 8
  %.not1415 = icmp eq ptr %4, %6
  br i1 %.not1415, label %._crit_edge, label %.lr.ph

.lr.ph:                                           ; preds = %2, %29
  %.sroa.011.016 = phi ptr [ %30, %29 ], [ %4, %2 ]
  %7 = call noundef zeroext i1 @_ZNKSt7__cxx1112basic_stringIcSt11char_traitsIcESaIcEE5emptyEv(ptr noundef nonnull align 8 dereferenceable(32) %0) #19
  br i1 %7, label %11, label %8

8:                                                ; preds = %.lr.ph
  invoke void @_ZNSt7__cxx1112basic_stringIcSt11char_traitsIcESaIcEE9push_backEc(ptr noundef nonnull align 8 dereferenceable(32) %0, i8 noundef signext 32)
          to label %11 unwind label %9

9:                                                ; preds = %11, %8
  %10 = landingpad { ptr, i32 }
          cleanup
  br label %31

11:                                               ; preds = %8, %.lr.ph
  %12 = call { i64, ptr } @_ZNKSt7__cxx1112basic_stringIcSt11char_traitsIcESaIcEEcvSt17basic_string_viewIcS2_EEv(ptr noundef nonnull align 8 dereferenceable(32) %.sroa.011.016) #19
  %13 = extractvalue { i64, ptr } %12, 0
  %14 = extractvalue { i64, ptr } %12, 1
  invoke void @_ZN11cmQtAutoGen6QuotedB5cxx11ESt17basic_string_viewIcSt11char_traitsIcEE(ptr dead_on_unwind nonnull writable sret(%"class.std::__cxx11::basic_string") align 8 %3, i64 %13, ptr %14)
          to label %15 unwind label %9

15:                                               ; preds = %11
  %16 = call noundef zeroext i1 @_ZNKSt7__cxx1112basic_stringIcSt11char_traitsIcESaIcEE5emptyEv(ptr noundef nonnull align 8 dereferenceable(32) %.sroa.011.016) #19
  br i1 %16, label %24, label %17

17:                                               ; preds = %15
  %18 = call noundef i64 @_ZNKSt7__cxx1112basic_stringIcSt11char_traitsIcESaIcEE4sizeEv(ptr noundef nonnull align 8 dereferenceable(32) %3) #19
  %19 = call noundef i64 @_ZNKSt7__cxx1112basic_stringIcSt11char_traitsIcESaIcEE4sizeEv(ptr noundef nonnull align 8 dereferenceable(32) %.sroa.011.016) #19
  %20 = add i64 %19, 2
  %21 = icmp ugt i64 %18, %20
  br i1 %21, label %24, label %22

22:                                               ; preds = %17
  %23 = call noundef i64 @_ZNKSt7__cxx1112basic_stringIcSt11char_traitsIcESaIcEE4findEcm(ptr noundef nonnull align 8 dereferenceable(32) %3, i8 noundef signext 32, i64 noundef 0) #19
  %.not = icmp eq i64 %23, -1
  br i1 %.not, label %.invoke, label %24

24:                                               ; preds = %22, %17, %15
  br label %.invoke

25:                                               ; preds = %.invoke
  %26 = landingpad { ptr, i32 }
          cleanup
  call void @_ZNSt7__cxx1112basic_stringIcSt11char_traitsIcESaIcEED1Ev(ptr noundef nonnull align 8 dereferenceable(32) %3) #19
  br label %31

.invoke:                                          ; preds = %22, %24
  %27 = phi ptr [ %3, %24 ], [ %.sroa.011.016, %22 ]
  %28 = invoke noundef nonnull align 8 dereferenceable(32) ptr @_ZNSt7__cxx1112basic_stringIcSt11char_traitsIcESaIcEEpLERKS4_(ptr noundef nonnull align 8 dereferenceable(32) %0, ptr noundef nonnull align 8 dereferenceable(32) %27)
          to label %29 unwind label %25

29:                                               ; preds = %.invoke
  call void @_ZNSt7__cxx1112basic_stringIcSt11char_traitsIcESaIcEED1Ev(ptr noundef nonnull align 8 dereferenceable(32) %3) #19
  %30 = getelementptr inbounds nuw i8, ptr %.sroa.011.016, i64 32
  %.not14 = icmp eq ptr %30, %6
  br i1 %.not14, label %._crit_edge, label %.lr.ph

._crit_edge:                                      ; preds = %29, %2
  ret void

31:                                               ; preds = %25, %9
  %.pn = phi { ptr, i32 } [ %26, %25 ], [ %10, %9 ]
  call void @_ZNSt7__cxx1112basic_stringIcSt11char_traitsIcESaIcEED1Ev(ptr noundef nonnull align 8 dereferenceable(32) %0) #19
  resume { ptr, i32 } %.pn
}